Certificate:
    Data:
        Version: 3 (0x2)
        Serial Number: 2 (0x2)
    Signature Algorithm: sha256WithRSAEncryption
        Issuer: C=CN, ST=GuangDong, L=GuangZhou, O=SCUT, OU=IBM Lab, CN=116.56.140.108/emailAddress=wu812730157@gmail.com
        Validity
            Not Before: Mar 14 03:31:36 2018 GMT
            Not After : Mar 14 03:31:36 2019 GMT
        Subject: C=CN, ST=GuangDong, O=SCUT, OU=IBM Lab, CN=116.56.140.108, CN=openshift-master/emailAddress=wu812730157@gmail.com
        Subject Public Key Info:
            Public Key Algorithm: rsaEncryption
                Public-Key: (2048 bit)
                Modulus:
                    00:da:97:15:90:1e:2d:93:8b:06:91:38:a6:c4:0f:
                    fc:df:f3:e8:18:02:40:ad:6c:83:ba:c1:d9:20:fd:
                    e1:25:fb:46:79:db:68:0d:90:b1:6c:f7:ca:ba:a7:
                    01:58:4b:17:4e:60:a3:17:6e:d1:d1:32:92:aa:3b:
                    13:fb:47:b1:37:46:3a:43:74:7a:18:24:72:1a:14:
                    24:27:7e:e8:ee:27:2b:83:8a:f8:db:48:96:fc:ca:
                    ae:6d:4d:3d:ba:d5:08:89:e8:50:1f:bd:78:a1:0e:
                    1b:31:26:52:94:cf:09:31:5e:25:d0:62:3e:9d:69:
                    b1:2d:ff:68:4a:43:f4:a7:a7:74:08:4a:b1:a4:07:
                    9c:c7:ae:f1:61:3a:7c:b2:13:12:4a:f4:3f:e0:98:
                    39:d6:a9:d0:f7:6c:f0:8b:c9:66:d6:fc:55:89:9d:
                    bc:fb:27:9f:a9:50:70:a1:96:c3:92:72:e0:f8:39:
                    78:fd:19:d7:d7:64:a3:c0:84:73:ac:d5:6d:1f:a1:
                    e0:d7:bf:06:20:77:29:7b:be:8c:3b:73:e6:78:25:
                    ec:93:22:9e:a8:33:cc:f9:53:da:b1:90:7b:ea:0f:
                    e8:f8:86:c7:3e:67:84:bf:b1:52:d9:e9:0c:f4:73:
                    a7:16:7c:0d:50:d5:ab:82:d9:16:3f:50:8c:f7:53:
                    71:51
                Exponent: 65537 (0x10001)
        X509v3 extensions:
            X509v3 Basic Constraints: 
                CA:FALSE
            Netscape Comment: 
                OpenSSL Generated Certificate
            X509v3 Subject Key Identifier: 
                2C:DD:A0:40:C6:FD:BE:39:7D:57:EC:28:10:3C:AB:DD:21:44:28:C2
            X509v3 Authority Key Identifier: 
                keyid:04:23:F0:DE:21:12:F0:B5:BA:29:D7:44:21:31:AD:7D:5C:8E:50:AD

    Signature Algorithm: sha256WithRSAEncryption
         85:bd:49:5e:63:4a:37:b4:6a:ac:1d:48:e4:c0:9b:37:82:5e:
         08:53:7c:bb:e3:67:1e:81:57:42:83:7f:db:93:48:f5:5c:d6:
         09:2f:df:29:3e:5b:f3:c5:be:65:59:09:c5:3b:7b:b4:73:2c:
         4b:1e:79:cc:3e:2f:cd:56:6a:b5:40:ab:15:e3:a6:51:a4:f1:
         e7:81:dd:69:a5:2c:36:ec:5d:5d:20:91:2f:c4:92:88:e7:21:
         ad:3f:01:ae:4e:ff:7d:bf:c3:0f:92:8a:55:d2:d8:10:3b:0e:
         0a:ad:bf:47:01:50:c0:7c:10:5a:94:1b:f0:b0:d1:a1:a1:38:
         b8:1e:bb:9a:5b:11:e7:d5:34:b4:24:91:13:76:c9:1f:23:9a:
         cd:df:36:fa:b4:dc:01:da:a9:59:5f:75:c3:ca:8e:7d:41:97:
         04:ce:05:32:b0:bc:95:c3:3e:3f:6a:bc:22:e5:9f:20:d9:fc:
         2b:92:0d:9c:41:14:0b:45:e2:7a:52:1f:21:48:16:9b:b9:37:
         99:cf:f3:cf:36:57:2e:7d:3d:aa:b0:8d:52:86:dd:e3:9b:ff:
         f4:dc:19:c6:e8:9f:6f:92:9d:c9:fb:26:a7:24:29:47:b8:81:
         37:68:1d:29:80:69:bf:dc:14:0c:d5:34:2d:11:95:4e:32:9a:
         41:f1:55:c9
-----BEGIN CERTIFICATE-----
MIIEKTCCAxGgAwIBAgIBAjANBgkqhkiG9w0BAQsFADCBlTELMAkGA1UEBhMCQ04x
EjAQBgNVBAgMCUd1YW5nRG9uZzESMBAGA1UEBwwJR3VhbmdaaG91MQ0wCwYDVQQK
DARTQ1VUMRAwDgYDVQQLDAdJQk0gTGFiMRcwFQYDVQQDDA4xMTYuNTYuMTQwLjEw
ODEkMCIGCSqGSIb3DQEJARYVd3U4MTI3MzAxNTdAZ21haWwuY29tMB4XDTE4MDMx
NDAzMzEzNloXDTE5MDMxNDAzMzEzNlowgZwxCzAJBgNVBAYTAkNOMRIwEAYDVQQI
DAlHdWFuZ0RvbmcxDTALBgNVBAoMBFNDVVQxEDAOBgNVBAsMB0lCTSBMYWIxFzAV
BgNVBAMMDjExNi41Ni4xNDAuMTA4MRkwFwYDVQQDDBBvcGVuc2hpZnQtbWFzdGVy
MSQwIgYJKoZIhvcNAQkBFhV3dTgxMjczMDE1N0BnbWFpbC5jb20wggEiMA0GCSqG
SIb3DQEBAQUAA4IBDwAwggEKAoIBAQDalxWQHi2TiwaROKbED/zf8+gYAkCtbIO6
wdkg/eEl+0Z522gNkLFs98q6pwFYSxdOYKMXbtHRMpKqOxP7R7E3RjpDdHoYJHIa
FCQnfujuJyuDivjbSJb8yq5tTT261QiJ6FAfvXihDhsxJlKUzwkxXiXQYj6dabEt
/2hKQ/Snp3QISrGkB5zHrvFhOnyyExJK9D/gmDnWqdD3bPCLyWbW/FWJnbz7J5+p
UHChlsOScuD4OXj9GdfXZKPAhHOs1W0foeDXvwYgdyl7vow7c+Z4JeyTIp6oM8z5
U9qxkHvqD+j4hsc+Z4S/sVLZ6Qz0c6cWfA1Q1auC2RY/UIz3U3FRAgMBAAGjezB5
MAkGA1UdEwQCMAAwLAYJYIZIAYb4QgENBB8WHU9wZW5TU0wgR2VuZXJhdGVkIENl
cnRpZmljYXRlMB0GA1UdDgQWBBQs3aBAxv2+OX1X7CgQPKvdIUQowjAfBgNVHSME
GDAWgBQEI/DeIRLwtbop10QhMa19XI5QrTANBgkqhkiG9w0BAQsFAAOCAQEAhb1J
XmNKN7RqrB1I5MCbN4JeCFN8u+NnHoFXQoN/25NI9VzWCS/fKT5b88W+ZVkJxTt7
tHMsSx55zD4vzVZqtUCrFeOmUaTx54HdaaUsNuxdXSCRL8SSiOchrT8Brk7/fb/D
D5KKVdLYEDsOCq2/RwFQwHwQWpQb8LDRoaE4uB67mlsR59U0tCSRE3bJHyOazd82
+rTcAdqpWV91w8qOfUGXBM4FMrC8lcM+P2q8IuWfINn8K5INnEEUC0XielIfIUgW
m7k3mc/zzzZXLn09qrCNUobd45v/9NwZxuifb5KdyfsmpyQpR7iBN2gdKYBpv9wU
DNU0LRGVTjKaQfFVyQ==
-----END CERTIFICATE-----
